target datalayout = "e-m:e-p270:32:32-p271:32:32-p272:64:64-i64:64-i128:128-f80:128-n8:16:32:64-S128"
target triple = "x86_64-pc-linux-gnu"

%struct.__mbstate_t = type { i32, %union.anon }
%union.anon = type { i32 }

; Function Attrs: mustprogress nounwind uwtable
define internal noundef zeroext i1 @_ZL13WideToCharMapPKwPcmRb(ptr noundef %0, ptr noundef %1, i64 noundef %2, ptr noundef nonnull align 1 dereferenceable(1) %3) #1 {
  %5 = alloca i1, align 1
  %6 = alloca ptr, align 8
  %7 = alloca ptr, align 8
  %8 = alloca i64, align 8
  %9 = alloca ptr, align 8
  %10 = alloca i32, align 4
  %11 = alloca i32, align 4
  %12 = alloca %struct.__mbstate_t, align 4
  %13 = alloca i32, align 4
  store ptr %0, ptr %6, align 8
  store ptr %1, ptr %7, align 8
  store i64 %2, ptr %8, align 8
  store ptr %3, ptr %9, align 8
  %14 = load ptr, ptr %6, align 8
  %15 = call ptr @wcschr(ptr noundef %14, i32 noundef signext 65534) #8
  %16 = icmp eq ptr %15, null
  br i1 %16, label %17, label %18

17:                                               ; preds = %4
  store i1 false, ptr %5, align 1
  br label %130

18:                                               ; preds = %4
  %19 = load ptr, ptr %7, align 8
  %20 = load i64, ptr %8, align 8
  call void @llvm.memset.p0.i64(ptr align 1 %19, i8 0, i64 %20, i1 false)
  %21 = load ptr, ptr %9, align 8
  store i8 1, ptr %21, align 1
  store i32 0, ptr %10, align 4
  store i32 0, ptr %11, align 4
  br label %22

22:                                               ; preds = %113, %45, %18
  %23 = load ptr, ptr %6, align 8
  %24 = load i32, ptr %10, align 4
  %25 = zext i32 %24 to i64
  %26 = getelementptr inbounds i32, ptr %23, i64 %25
  %27 = load i32, ptr %26, align 4
  %28 = icmp ne i32 %27, 0
  br i1 %28, label %29, label %36

29:                                               ; preds = %22
  %30 = load i32, ptr %11, align 4
  %31 = zext i32 %30 to i64
  %32 = load i64, ptr %8, align 8
  %33 = call i64 @__ctype_get_mb_cur_max() #6
  %34 = sub i64 %32, %33
  %35 = icmp ult i64 %31, %34
  br label %36

36:                                               ; preds = %29, %22
  %37 = phi i1 [ false, %22 ], [ %35, %29 ]
  br i1 %37, label %38, label %114

38:                                               ; preds = %36
  %39 = load ptr, ptr %6, align 8
  %40 = load i32, ptr %10, align 4
  %41 = zext i32 %40 to i64
  %42 = getelementptr inbounds i32, ptr %39, i64 %41
  %43 = load i32, ptr %42, align 4
  %44 = icmp eq i32 %43, 65534
  br i1 %44, label %45, label %48

45:                                               ; preds = %38
  %46 = load i32, ptr %10, align 4
  %47 = add i32 %46, 1
  store i32 %47, ptr %10, align 4
  br label %22, !llvm.loop !4

48:                                               ; preds = %38
  %49 = load ptr, ptr %6, align 8
  %50 = load i32, ptr %10, align 4
  %51 = zext i32 %50 to i64
  %52 = getelementptr inbounds i32, ptr %49, i64 %51
  %53 = load i32, ptr %52, align 4
  %54 = icmp uge i32 %53, 57472
  br i1 %54, label %55, label %76

55:                                               ; preds = %48
  %56 = load ptr, ptr %6, align 8
  %57 = load i32, ptr %10, align 4
  %58 = zext i32 %57 to i64
  %59 = getelementptr inbounds i32, ptr %56, i64 %58
  %60 = load i32, ptr %59, align 4
  %61 = icmp ult i32 %60, 57600
  br i1 %61, label %62, label %76

62:                                               ; preds = %55
  %63 = load ptr, ptr %6, align 8
  %64 = load i32, ptr %10, align 4
  %65 = add i32 %64, 1
  store i32 %65, ptr %10, align 4
  %66 = zext i32 %64 to i64
  %67 = getelementptr inbounds i32, ptr %63, i64 %66
  %68 = load i32, ptr %67, align 4
  %69 = sub i32 %68, 57344
  %70 = trunc i32 %69 to i8
  %71 = load ptr, ptr %7, align 8
  %72 = load i32, ptr %11, align 4
  %73 = add i32 %72, 1
  store i32 %73, ptr %11, align 4
  %74 = zext i32 %72 to i64
  %75 = getelementptr inbounds i8, ptr %71, i64 %74
  store i8 %70, ptr %75, align 1
  br label %113

76:                                               ; preds = %55, %48
  call void @llvm.memset.p0.i64(ptr align 4 %12, i8 0, i64 8, i1 false)
  %77 = load ptr, ptr %7, align 8
  %78 = load i32, ptr %11, align 4
  %79 = zext i32 %78 to i64
  %80 = getelementptr inbounds i8, ptr %77, i64 %79
  %81 = load ptr, ptr %6, align 8
  %82 = load i32, ptr %10, align 4
  %83 = zext i32 %82 to i64
  %84 = getelementptr inbounds i32, ptr %81, i64 %83
  %85 = load i32, ptr %84, align 4
  %86 = call i64 @wcrtomb(ptr noundef %80, i32 noundef signext %85, ptr noundef %12) #6
  %87 = icmp eq i64 %86, -1
  br i1 %87, label %88, label %94

88:                                               ; preds = %76
  %89 = load ptr, ptr %7, align 8
  %90 = load i32, ptr %11, align 4
  %91 = zext i32 %90 to i64
  %92 = getelementptr inbounds i8, ptr %89, i64 %91
  store i8 95, ptr %92, align 1
  %93 = load ptr, ptr %9, align 8
  store i8 0, ptr %93, align 1
  br label %94

94:                                               ; preds = %88, %76
  %95 = load i32, ptr %10, align 4
  %96 = add i32 %95, 1
  store i32 %96, ptr %10, align 4
  call void @llvm.memset.p0.i64(ptr align 4 %12, i8 0, i64 8, i1 false)
  %97 = load ptr, ptr %7, align 8
  %98 = load i32, ptr %11, align 4
  %99 = zext i32 %98 to i64
  %100 = getelementptr inbounds i8, ptr %97, i64 %99
  %101 = call i64 @__ctype_get_mb_cur_max() #6
  %102 = call i64 @mbrlen(ptr noundef %100, i64 noundef %101, ptr noundef %12) #6
  %103 = trunc i64 %102 to i32
  store i32 %103, ptr %13, align 4
  %104 = load i32, ptr %13, align 4
  %105 = icmp sgt i32 %104, 1
  br i1 %105, label %106, label %108

106:                                              ; preds = %94
  %107 = load i32, ptr %13, align 4
  br label %109

108:                                              ; preds = %94
  br label %109

109:                                              ; preds = %108, %106
  %110 = phi i32 [ %107, %106 ], [ 1, %108 ]
  %111 = load i32, ptr %11, align 4
  %112 = add i32 %111, %110
  store i32 %112, ptr %11, align 4
  br label %113

113:                                              ; preds = %109, %62
  br label %22, !llvm.loop !4

114:                                              ; preds = %36
  %115 = load ptr, ptr %7, align 8
  %116 = load i32, ptr %11, align 4
  %117 = zext i32 %116 to i64
  %118 = load i64, ptr %8, align 8
  %119 = sub i64 %118, 1
  %120 = icmp ult i64 %117, %119
  br i1 %120, label %121, label %124

121:                                              ; preds = %114
  %122 = load i32, ptr %11, align 4
  %123 = zext i32 %122 to i64
  br label %127

124:                                              ; preds = %114
  %125 = load i64, ptr %8, align 8
  %126 = sub i64 %125, 1
  br label %127

127:                                              ; preds = %124, %121
  %128 = phi i64 [ %123, %121 ], [ %126, %124 ]
  %129 = getelementptr inbounds i8, ptr %115, i64 %128
  store i8 0, ptr %129, align 1
  store i1 true, ptr %5, align 1
  br label %130

130:                                              ; preds = %127, %17
  %131 = load i1, ptr %5, align 1
  ret i1 %131
}

; Function Attrs: mustprogress uwtable
define noundef zeroext i1 @_Z10WideToCharPKwPcm(ptr noundef %0, ptr noundef %1, i64 noundef %2) #0 {
  %4 = alloca ptr, align 8
  %5 = alloca ptr, align 8
  %6 = alloca i64, align 8
  %7 = alloca i8, align 1
  %8 = alloca %struct.__mbstate_t, align 4
  %9 = alloca ptr, align 8
  %10 = alloca i64, align 8
  store ptr %0, ptr %4, align 8
  store ptr %1, ptr %5, align 8
  store i64 %2, ptr %6, align 8
  store i8 1, ptr %7, align 1
  %11 = load ptr, ptr %5, align 8
  store i8 0, ptr %11, align 1
  %12 = load ptr, ptr %4, align 8
  %13 = load ptr, ptr %5, align 8
  %14 = load i64, ptr %6, align 8
  %15 = call noundef zeroext i1 @_ZL13WideToCharMapPKwPcmRb(ptr noundef %12, ptr noundef %13, i64 noundef %14, ptr noundef nonnull align 1 dereferenceable(1) %7)
  br i1 %15, label %47, label %16

16:                                               ; preds = %3
  call void @llvm.memset.p0.i64(ptr align 4 %8, i8 0, i64 8, i1 false)
  %17 = load ptr, ptr %4, align 8
  store ptr %17, ptr %9, align 8
  %18 = load ptr, ptr %5, align 8
  %19 = load i64, ptr %6, align 8
  %20 = call i64 @wcsrtombs(ptr noundef %18, ptr noundef %9, i64 noundef %19, ptr noundef %8) #6
  store i64 %20, ptr %10, align 8
  %21 = load i64, ptr %10, align 8
  %22 = icmp eq i64 %21, -1
  br i1 %22, label %23, label %34

23:                                               ; preds = %16
  %24 = call ptr @__errno_location() #7
  %25 = load i32, ptr %24, align 4
  %26 = icmp eq i32 %25, 84
  br i1 %26, label %27, label %34

27:                                               ; preds = %23
  call void @llvm.memset.p0.i64(ptr align 4 %8, i8 0, i64 8, i1 false)
  %28 = load ptr, ptr %4, align 8
  store ptr %28, ptr %9, align 8
  %29 = load ptr, ptr %5, align 8
  %30 = load i64, ptr %6, align 8
  call void @llvm.memset.p0.i64(ptr align 1 %29, i8 0, i64 %30, i1 false)
  %31 = load ptr, ptr %5, align 8
  %32 = load i64, ptr %6, align 8
  %33 = call i64 @wcsrtombs(ptr noundef %31, ptr noundef %9, i64 noundef %32, ptr noundef %8) #6
  store i64 %33, ptr %10, align 8
  br label %34

34:                                               ; preds = %27, %23, %16
  %35 = load i64, ptr %10, align 8
  %36 = icmp eq i64 %35, -1
  br i1 %36, label %37, label %38

37:                                               ; preds = %34
  store i8 0, ptr %7, align 1
  br label %38

38:                                               ; preds = %37, %34
  %39 = load i64, ptr %10, align 8
  %40 = icmp eq i64 %39, 0
  br i1 %40, label %41, label %46

41:                                               ; preds = %38
  %42 = load ptr, ptr %4, align 8
  %43 = load i32, ptr %42, align 4
  %44 = icmp ne i32 %43, 0
  br i1 %44, label %45, label %46

45:                                               ; preds = %41
  store i8 0, ptr %7, align 1
  br label %46

46:                                               ; preds = %45, %41, %38
  br label %47

47:                                               ; preds = %46, %3
  %48 = load i64, ptr %6, align 8
  %49 = icmp ugt i64 %48, 0
  br i1 %49, label %50, label %55

50:                                               ; preds = %47
  %51 = load ptr, ptr %5, align 8
  %52 = load i64, ptr %6, align 8
  %53 = sub i64 %52, 1
  %54 = getelementptr inbounds i8, ptr %51, i64 %53
  store i8 0, ptr %54, align 1
  br label %55

55:                                               ; preds = %50, %47
  %56 = load i8, ptr %7, align 1
  %57 = trunc i8 %56 to i1
  ret i1 %57
}