; Function Attrs: mustprogress nounwind uwtable
define noundef zeroext i1 @_Z10WideToCharPKwPcm(ptr noundef %0, ptr noundef initializes((0, 1)) %1, i64 noundef %2) local_unnamed_addr #0 {
  %4 = alloca %struct.__mbstate_t, align 8
  %5 = alloca %struct.__mbstate_t, align 8
  %6 = alloca ptr, align 8
  store i8 0, ptr %1, align 1
  call void @llvm.lifetime.start.p0(i64 8, ptr nonnull %4)
  %7 = tail call ptr @wcschr(ptr noundef readonly %0, i32 noundef signext 65534) #11
  %.not28 = icmp eq ptr %7, null
  br i1 %.not28, label %_ZL13WideToCharMapPKwPcmRb.exit.thread, label %10

_ZL13WideToCharMapPKwPcmRb.exit.thread:           ; preds = %3
  call void @llvm.lifetime.end.p0(i64 8, ptr nonnull %4)
  store i64 0, ptr %5, align 8
  store ptr %0, ptr %6, align 8
  %8 = call i64 @wcsrtombs(ptr noundef nonnull %1, ptr noundef nonnull %6, i64 noundef %2, ptr noundef nonnull %5) #12
  %9 = icmp eq i64 %8, -1
  br i1 %9, label %50, label %56

10:                                               ; preds = %3
  tail call void @llvm.memset.p0.i64(ptr nonnull align 1 %1, i8 0, i64 %2, i1 false)
  %11 = load i32, ptr %0, align 4
  %.not4449.i = icmp eq i32 %11, 0
  br i1 %.not4449.i, label %_ZL13WideToCharMapPKwPcmRb.exit.thread24, label %.lr.ph.i

_ZL13WideToCharMapPKwPcmRb.exit.thread24:         ; preds = %10
  store i8 0, ptr %1, align 1
  call void @llvm.lifetime.end.p0(i64 8, ptr nonnull %4)
  br label %59

.lr.ph.i:                                         ; preds = %10, %.outer.i
  %.1 = phi i1 [ %.4, %.outer.i ], [ true, %10 ]
  %12 = phi ptr [ %45, %.outer.i ], [ %0, %10 ]
  %.037.ph51.i = phi i32 [ %.1.i, %.outer.i ], [ 0, %10 ]
  %.038.ph50.i = phi i32 [ %.139.i, %.outer.i ], [ 0, %10 ]
  %13 = zext i32 %.037.ph51.i to i64
  br label %14

14:                                               ; preds = %22, %.lr.ph.i
  %15 = phi ptr [ %12, %.lr.ph.i ], [ %25, %22 ]
  %.03845.i = phi i32 [ %.038.ph50.i, %.lr.ph.i ], [ %23, %22 ]
  %16 = call i64 @__ctype_get_mb_cur_max() #12
  %17 = sub i64 %2, %16
  %18 = icmp ugt i64 %17, %13
  br i1 %18, label %19, label %_ZL13WideToCharMapPKwPcmRb.exit

19:                                               ; preds = %14
  %20 = load i32, ptr %15, align 4
  %21 = icmp eq i32 %20, 65534
  br i1 %21, label %22, label %27

22:                                               ; preds = %19
  %23 = add i32 %.03845.i, 1
  %24 = zext i32 %23 to i64
  %25 = getelementptr inbounds nuw i32, ptr %0, i64 %24
  %26 = load i32, ptr %25, align 4
  %.not.i = icmp eq i32 %26, 0
  br i1 %.not.i, label %_ZL13WideToCharMapPKwPcmRb.exit, label %14, !llvm.loop !4

27:                                               ; preds = %19
  %28 = and i32 %20, -128
  %or.cond.i = icmp eq i32 %28, 57472
  br i1 %or.cond.i, label %29, label %33

29:                                               ; preds = %27
  %30 = trunc i32 %20 to i8
  %31 = add i32 %.037.ph51.i, 1
  %32 = getelementptr inbounds nuw i8, ptr %1, i64 %13
  store i8 %30, ptr %32, align 1
  br label %.outer.i

33:                                               ; preds = %27
  store i64 0, ptr %4, align 8
  %34 = getelementptr inbounds nuw i8, ptr %1, i64 %13
  %35 = call i64 @wcrtomb(ptr noundef nonnull %34, i32 noundef signext %20, ptr noundef nonnull %4) #12
  %36 = icmp eq i64 %35, -1
  br i1 %36, label %37, label %38

37:                                               ; preds = %33
  store i8 95, ptr %34, align 1
  br label %38

38:                                               ; preds = %37, %33
  %.3 = phi i1 [ false, %37 ], [ %.1, %33 ]
  store i64 0, ptr %4, align 8
  %39 = call i64 @__ctype_get_mb_cur_max() #12
  %40 = call i64 @mbrlen(ptr noundef nonnull %34, i64 noundef %39, ptr noundef nonnull %4) #12
  %41 = trunc i64 %40 to i32
  %42 = call i32 @llvm.smax.i32(i32 %41, i32 1)
  %43 = add i32 %42, %.037.ph51.i
  br label %.outer.i

.outer.i:                                         ; preds = %38, %29
  %.4 = phi i1 [ %.1, %29 ], [ %.3, %38 ]
  %.1.i = phi i32 [ %31, %29 ], [ %43, %38 ]
  %.139.i = add i32 %.03845.i, 1
  %44 = zext i32 %.139.i to i64
  %45 = getelementptr inbounds nuw i32, ptr %0, i64 %44
  %46 = load i32, ptr %45, align 4
  %.not44.i = icmp eq i32 %46, 0
  br i1 %.not44.i, label %_ZL13WideToCharMapPKwPcmRb.exit.loopexit33, label %.lr.ph.i, !llvm.loop !4

_ZL13WideToCharMapPKwPcmRb.exit.loopexit33:       ; preds = %.outer.i
  %.pre = zext i32 %.1.i to i64
  br label %_ZL13WideToCharMapPKwPcmRb.exit

_ZL13WideToCharMapPKwPcmRb.exit:                  ; preds = %14, %22, %_ZL13WideToCharMapPKwPcmRb.exit.loopexit33
  %.pre-phi = phi i64 [ %.pre, %_ZL13WideToCharMapPKwPcmRb.exit.loopexit33 ], [ %13, %22 ], [ %13, %14 ]
  %.2 = phi i1 [ %.4, %_ZL13WideToCharMapPKwPcmRb.exit.loopexit33 ], [ %.1, %22 ], [ %.1, %14 ]
  %47 = add i64 %2, -1
  %48 = call i64 @llvm.umin.i64(i64 %47, i64 %.pre-phi)
  %49 = getelementptr inbounds nuw i8, ptr %1, i64 %48
  store i8 0, ptr %49, align 1
  call void @llvm.lifetime.end.p0(i64 8, ptr nonnull %4)
  br label %59

50:                                               ; preds = %_ZL13WideToCharMapPKwPcmRb.exit.thread
  %51 = tail call ptr @__errno_location() #13
  %52 = load i32, ptr %51, align 4
  %53 = icmp eq i32 %52, 84
  br i1 %53, label %54, label %.thread

54:                                               ; preds = %50
  store i64 0, ptr %5, align 8
  store ptr %0, ptr %6, align 8
  call void @llvm.memset.p0.i64(ptr nonnull align 1 %1, i8 0, i64 %2, i1 false)
  %55 = call i64 @wcsrtombs(ptr noundef nonnull %1, ptr noundef nonnull %6, i64 noundef %2, ptr noundef nonnull %5) #12
  br label %56

56:                                               ; preds = %54, %_ZL13WideToCharMapPKwPcmRb.exit.thread
  %.0 = phi i64 [ %55, %54 ], [ %8, %_ZL13WideToCharMapPKwPcmRb.exit.thread ]
  switch i64 %.0, label %59 [
    i64 -1, label %.thread
    i64 0, label %57
  ]

.thread:                                          ; preds = %50, %56
  br label %59

57:                                               ; preds = %56
  %58 = load i32, ptr %0, align 4
  %.not = icmp eq i32 %58, 0
  br label %59

59:                                               ; preds = %_ZL13WideToCharMapPKwPcmRb.exit, %57, %_ZL13WideToCharMapPKwPcmRb.exit.thread24, %.thread, %56
  %.021 = phi i1 [ %.2, %_ZL13WideToCharMapPKwPcmRb.exit ], [ true, %56 ], [ false, %.thread ], [ true, %_ZL13WideToCharMapPKwPcmRb.exit.thread24 ], [ %.not, %57 ]
  %.not20 = icmp eq i64 %2, 0
  br i1 %.not20, label %63, label %60

60:                                               ; preds = %59
  %61 = getelementptr i8, ptr %1, i64 %2
  %62 = getelementptr i8, ptr %61, i64 -1
  store i8 0, ptr %62, align 1
  br label %63

63:                                               ; preds = %60, %59
  ret i1 %.021
}